target datalayout = "e-m:e-p270:32:32-p271:32:32-p272:64:64-i64:64-i128:128-f80:128-n8:16:32:64-S128"
target triple = "x86_64-pc-linux-gnu"

; Function Attrs: inlinehint mustprogress nounwind uwtable
define internal noundef i32 @_ZN10duckdb_hllL10sdsHdrSizeEc(i8 noundef signext %0) #2 {
  %2 = alloca i32, align 4
  %3 = alloca i8, align 1
  store i8 %0, ptr %3, align 1, !tbaa !9
  %4 = load i8, ptr %3, align 1, !tbaa !9
  %5 = sext i8 %4 to i32
  %6 = and i32 %5, 7
  switch i32 %6, label %12 [
    i32 0, label %7
    i32 1, label %8
    i32 2, label %9
    i32 3, label %10
    i32 4, label %11
  ]

7:                                                ; preds = %1
  store i32 2, ptr %2, align 4
  br label %13

8:                                                ; preds = %1
  store i32 4, ptr %2, align 4
  br label %13

9:                                                ; preds = %1
  store i32 6, ptr %2, align 4
  br label %13

10:                                               ; preds = %1
  store i32 10, ptr %2, align 4
  br label %13

11:                                               ; preds = %1
  store i32 18, ptr %2, align 4
  br label %13

12:                                               ; preds = %1
  store i32 0, ptr %2, align 4
  br label %13

13:                                               ; preds = %12, %11, %10, %9, %8, %7
  %14 = load i32, ptr %2, align 4
  ret i32 %14
}

; Function Attrs: mustprogress uwtable
define void @_ZN10duckdb_hll7sdsfreeEPc(ptr noundef %0) #0 {
  %2 = alloca ptr, align 8
  store ptr %0, ptr %2, align 8, !tbaa !12
  %3 = load ptr, ptr %2, align 8, !tbaa !12
  %4 = icmp eq ptr %3, null
  br i1 %4, label %5, label %6

5:                                                ; preds = %1
  br label %15

6:                                                ; preds = %1
  %7 = load ptr, ptr %2, align 8, !tbaa !12
  %8 = load ptr, ptr %2, align 8, !tbaa !12
  %9 = getelementptr inbounds i8, ptr %8, i64 -1
  %10 = load i8, ptr %9, align 1, !tbaa !9
  %11 = call noundef i32 @_ZN10duckdb_hllL10sdsHdrSizeEc(i8 noundef signext %10)
  %12 = sext i32 %11 to i64
  %13 = sub i64 0, %12
  %14 = getelementptr inbounds i8, ptr %7, i64 %13
  call void @free(ptr noundef %14) #11
  br label %15

15:                                               ; preds = %6, %5
  ret void
}

; Function Attrs: mustprogress uwtable
define void @_ZN10duckdb_hll15sdsfreesplitresEPPci(ptr noundef %0, i32 noundef %1) #0 {
  %3 = alloca ptr, align 8
  %4 = alloca i32, align 4
  store ptr %0, ptr %3, align 8, !tbaa !52
  store i32 %1, ptr %4, align 4, !tbaa !10
  %5 = load ptr, ptr %3, align 8, !tbaa !52
  %6 = icmp ne ptr %5, null
  br i1 %6, label %8, label %7

7:                                                ; preds = %2
  br label %21

8:                                                ; preds = %2
  br label %9

9:                                                ; preds = %13, %8
  %10 = load i32, ptr %4, align 4, !tbaa !10
  %11 = add nsw i32 %10, -1
  store i32 %11, ptr %4, align 4, !tbaa !10
  %12 = icmp ne i32 %10, 0
  br i1 %12, label %13, label %19

13:                                               ; preds = %9
  %14 = load ptr, ptr %3, align 8, !tbaa !52
  %15 = load i32, ptr %4, align 4, !tbaa !10
  %16 = sext i32 %15 to i64
  %17 = getelementptr inbounds ptr, ptr %14, i64 %16
  %18 = load ptr, ptr %17, align 8, !tbaa !12
  call void @_ZN10duckdb_hll7sdsfreeEPc(ptr noundef %18)
  br label %9, !llvm.loop !56

19:                                               ; preds = %9
  %20 = load ptr, ptr %3, align 8, !tbaa !52
  call void @free(ptr noundef %20) #11
  br label %21

21:                                               ; preds = %19, %7
  ret void
}