; Function Attrs: mustprogress nounwind uwtable
define void @_ZN10duckdb_hll15sdsfreesplitresEPPci(ptr noundef captures(address_is_null) %0, i32 noundef %1) local_unnamed_addr #16 {
  %.not = icmp eq ptr %0, null
  br i1 %.not, label %14, label %.preheader

.preheader:                                       ; preds = %2
  %.not45 = icmp eq i32 %1, 0
  br i1 %.not45, label %._crit_edge, label %.lr.ph.preheader

.lr.ph.preheader:                                 ; preds = %.preheader
  %3 = sext i32 %1 to i64
  br label %.lr.ph

.lr.ph:                                           ; preds = %.lr.ph.preheader, %_ZN10duckdb_hll7sdsfreeEPc.exit
  %indvars.iv = phi i64 [ %3, %.lr.ph.preheader ], [ %indvars.iv.next, %_ZN10duckdb_hll7sdsfreeEPc.exit ]
  %indvars.iv.next = add nsw i64 %indvars.iv, -1
  %4 = getelementptr inbounds ptr, ptr %0, i64 %indvars.iv.next
  %5 = load ptr, ptr %4, align 8, !tbaa !27
  %6 = icmp eq ptr %5, null
  br i1 %6, label %_ZN10duckdb_hll7sdsfreeEPc.exit, label %7

7:                                                ; preds = %.lr.ph
  %8 = getelementptr inbounds i8, ptr %5, i64 -1
  %9 = load i8, ptr %8, align 1, !tbaa !20
  %10 = and i8 %9, 7
  %11 = icmp samesign ult i8 %10, 5
  br i1 %11, label %switch.lookup, label %_ZN10duckdb_hllL10sdsHdrSizeEc.exit.i

switch.lookup:                                    ; preds = %7
  %12 = zext nneg i8 %10 to i64
  %switch.gep = getelementptr inbounds nuw [5 x i64], ptr @switch.table._ZN10duckdb_hll12sdssplitargsEPKcPi.4, i64 0, i64 %12
  %switch.load = load i64, ptr %switch.gep, align 8
  br label %_ZN10duckdb_hllL10sdsHdrSizeEc.exit.i

_ZN10duckdb_hllL10sdsHdrSizeEc.exit.i:            ; preds = %7, %switch.lookup
  %.0.i.neg.i = phi i64 [ %switch.load, %switch.lookup ], [ 0, %7 ]
  %13 = getelementptr inbounds i8, ptr %5, i64 %.0.i.neg.i
  tail call void @free(ptr noundef %13) #30
  br label %_ZN10duckdb_hll7sdsfreeEPc.exit

_ZN10duckdb_hll7sdsfreeEPc.exit:                  ; preds = %.lr.ph, %_ZN10duckdb_hllL10sdsHdrSizeEc.exit.i
  %.not4 = icmp eq i64 %indvars.iv.next, 0
  br i1 %.not4, label %._crit_edge, label %.lr.ph, !llvm.loop !40

._crit_edge:                                      ; preds = %_ZN10duckdb_hll7sdsfreeEPc.exit, %.preheader
  tail call void @free(ptr noundef nonnull %0) #30
  br label %14

14:                                               ; preds = %2, %._crit_edge
  ret void
}